target datalayout = "e-m:e-p270:32:32-p271:32:32-p272:64:64-i64:64-i128:128-f80:128-n8:16:32:64-S128"
target triple = "x86_64-pc-linux-gnu"

%struct._typeobject = type { %struct.PyVarObject, ptr, i64, i64, ptr, i64, ptr, ptr, ptr, ptr, ptr, ptr, ptr, ptr, ptr, ptr, ptr, ptr, ptr, i64, ptr, ptr, ptr, ptr, i64, ptr, ptr, ptr, ptr, ptr, ptr, ptr, ptr, ptr, i64, ptr, ptr, ptr, ptr, ptr, ptr, ptr, ptr, ptr, ptr, ptr, i32, ptr, ptr, i8, i16 }
%struct.PyVarObject = type { %struct._object, i64 }
%struct._object = type { %union.anon, ptr }
%union.anon = type { i64 }
%struct.PyDescrObject = type { %struct._object, ptr, ptr, ptr }

@.str.11 = private unnamed_addr constant [30 x i8] c"<method '%V' of '%s' objects>\00", align 1
@.str.12 = private unnamed_addr constant [2 x i8] c"?\00", align 1

; Function Attrs: inlinehint nounwind uwtable
define internal i32 @PyType_HasFeature(ptr noundef %0, i64 noundef %1) #3 {
  %3 = alloca ptr, align 8
  %4 = alloca i64, align 8
  %5 = alloca i64, align 8
  store ptr %0, ptr %3, align 8, !tbaa !33
  store i64 %1, ptr %4, align 8, !tbaa !32
  call void @llvm.lifetime.start.p0(i64 8, ptr %5) #6
  %6 = load ptr, ptr %3, align 8, !tbaa !33
  %7 = getelementptr inbounds nuw %struct._typeobject, ptr %6, i32 0, i32 19
  %8 = load i64, ptr %7, align 8, !tbaa !160
  store i64 %8, ptr %5, align 8, !tbaa !32
  %9 = load i64, ptr %5, align 8, !tbaa !32
  %10 = load i64, ptr %4, align 8, !tbaa !32
  %11 = and i64 %9, %10
  %12 = icmp ne i64 %11, 0
  %13 = zext i1 %12 to i32
  call void @llvm.lifetime.end.p0(i64 8, ptr %5) #6
  ret i32 %13
}

; Function Attrs: inlinehint nounwind uwtable
define internal ptr @_Py_TYPE(ptr noundef %0) #3 {
  %2 = alloca ptr, align 8
  store ptr %0, ptr %2, align 8, !tbaa !4
  %3 = load ptr, ptr %2, align 8, !tbaa !4
  %4 = getelementptr inbounds nuw %struct._object, ptr %3, i32 0, i32 1
  %5 = load ptr, ptr %4, align 8, !tbaa !64
  ret ptr %5
}

; Function Attrs: nounwind uwtable
define internal ptr @descr_repr(ptr noundef %0, ptr noundef %1) #0 {
  %3 = alloca ptr, align 8
  %4 = alloca ptr, align 8
  %5 = alloca ptr, align 8
  store ptr %0, ptr %3, align 8, !tbaa !9
  store ptr %1, ptr %4, align 8, !tbaa !52
  call void @llvm.lifetime.start.p0(i64 8, ptr %5) #6
  store ptr null, ptr %5, align 8, !tbaa !4
  %6 = load ptr, ptr %3, align 8, !tbaa !9
  %7 = getelementptr inbounds nuw %struct.PyDescrObject, ptr %6, i32 0, i32 2
  %8 = load ptr, ptr %7, align 8, !tbaa !14
  %9 = icmp ne ptr %8, null
  br i1 %9, label %10, label %21

10:                                               ; preds = %2
  %11 = load ptr, ptr %3, align 8, !tbaa !9
  %12 = getelementptr inbounds nuw %struct.PyDescrObject, ptr %11, i32 0, i32 2
  %13 = load ptr, ptr %12, align 8, !tbaa !14
  %14 = call ptr @_Py_TYPE(ptr noundef %13)
  %15 = call i32 @PyType_HasFeature(ptr noundef %14, i64 noundef 268435456)
  %16 = icmp ne i32 %15, 0
  br i1 %16, label %17, label %21

17:                                               ; preds = %10
  %18 = load ptr, ptr %3, align 8, !tbaa !9
  %19 = getelementptr inbounds nuw %struct.PyDescrObject, ptr %18, i32 0, i32 2
  %20 = load ptr, ptr %19, align 8, !tbaa !14
  store ptr %20, ptr %5, align 8, !tbaa !4
  br label %21

21:                                               ; preds = %17, %10, %2
  %22 = load ptr, ptr %4, align 8, !tbaa !52
  %23 = load ptr, ptr %5, align 8, !tbaa !4
  %24 = load ptr, ptr %3, align 8, !tbaa !9
  %25 = getelementptr inbounds nuw %struct.PyDescrObject, ptr %24, i32 0, i32 1
  %26 = load ptr, ptr %25, align 8, !tbaa !10
  %27 = getelementptr inbounds nuw %struct._typeobject, ptr %26, i32 0, i32 1
  %28 = load ptr, ptr %27, align 8, !tbaa !25
  %29 = call ptr (ptr, ...) @PyUnicode_FromFormat(ptr noundef %22, ptr noundef %23, ptr noundef @.str.12, ptr noundef %28)
  call void @llvm.lifetime.end.p0(i64 8, ptr %5) #6
  ret ptr %29
}

; Function Attrs: nounwind uwtable
define internal ptr @method_repr(ptr noundef %0) #0 {
  %2 = alloca ptr, align 8
  store ptr %0, ptr %2, align 8, !tbaa !4
  %3 = load ptr, ptr %2, align 8, !tbaa !4
  %4 = call ptr @descr_repr(ptr noundef %3, ptr noundef @.str.11)
  ret ptr %4
}