; Function Attrs: nounwind uwtable
define internal ptr @method_repr(ptr noundef readonly captures(none) %0) #0 {
  %2 = getelementptr inbounds nuw i8, ptr %0, i64 24
  %3 = load ptr, ptr %2, align 8, !tbaa !17
  %.not.i = icmp eq ptr %3, null
  br i1 %.not.i, label %descr_repr.exit, label %4

4:                                                ; preds = %1
  %5 = getelementptr i8, ptr %3, i64 8
  %.val.i = load ptr, ptr %5, align 8, !tbaa !19
  %6 = getelementptr i8, ptr %.val.i, i64 168
  %.val8.i = load i64, ptr %6, align 8, !tbaa !20
  %7 = and i64 %.val8.i, 268435456
  %.not7.i = icmp eq i64 %7, 0
  %spec.select.i = select i1 %.not7.i, ptr null, ptr %3
  br label %descr_repr.exit

descr_repr.exit:                                  ; preds = %1, %4
  %.0.i = phi ptr [ null, %1 ], [ %spec.select.i, %4 ]
  %8 = getelementptr inbounds nuw i8, ptr %0, i64 16
  %9 = load ptr, ptr %8, align 8, !tbaa !10
  %10 = getelementptr inbounds nuw i8, ptr %9, i64 24
  %11 = load ptr, ptr %10, align 8, !tbaa !29
  %12 = tail call ptr (ptr, ...) @PyUnicode_FromFormat(ptr noundef nonnull @.str.11, ptr noundef %.0.i, ptr noundef nonnull @.str.12, ptr noundef %11) #9
  ret ptr %12
}